target datalayout = "e-m:e-p270:32:32-p271:32:32-p272:64:64-i64:64-i128:128-f80:128-n8:16:32:64-S128"
target triple = "x86_64-pc-linux-gnu"

@debug = global ptr null, align 8
@_ZL8log_file = internal global ptr null, align 8
@stderr = external global ptr, align 8
@stdout = external global ptr, align 8
@TMPI_COMM_WORLD = external global ptr, align 8

; Function Attrs: mustprogress noreturn uwtable
define void @_Z23gmx_exit_on_fatal_error8ExitTypei(i32 noundef %0, i32 noundef %1) #12 {
  %3 = alloca i32, align 4
  %4 = alloca i32, align 4
  store i32 %0, ptr %3, align 4, !tbaa !49
  store i32 %1, ptr %4, align 4, !tbaa !4
  %5 = load ptr, ptr @_ZL8log_file, align 8, !tbaa !15
  %6 = icmp ne ptr %5, null
  br i1 %6, label %7, label %10

7:                                                ; preds = %2
  %8 = load ptr, ptr @_ZL8log_file, align 8, !tbaa !15
  %9 = call i32 @fflush(ptr noundef %8)
  br label %10

10:                                               ; preds = %7, %2
  %11 = load ptr, ptr @debug, align 8, !tbaa !15
  %12 = icmp ne ptr %11, null
  br i1 %12, label %13, label %16

13:                                               ; preds = %10
  %14 = load ptr, ptr @debug, align 8, !tbaa !15
  %15 = call i32 @fflush(ptr noundef %14)
  br label %16

16:                                               ; preds = %13, %10
  %17 = load ptr, ptr @stdout, align 8, !tbaa !15
  %18 = call i32 @fflush(ptr noundef %17)
  %19 = load ptr, ptr @stderr, align 8, !tbaa !15
  %20 = call i32 @fflush(ptr noundef %19)
  %21 = call noundef zeroext i1 @_Z19gmx_mpi_initializedv()
  br i1 %21, label %22, label %30

22:                                               ; preds = %16
  %23 = load i32, ptr %3, align 4, !tbaa !49
  switch i32 %23, label %29 [
    i32 0, label %24
    i32 1, label %29
    i32 2, label %26
  ]

24:                                               ; preds = %22
  %25 = call noundef i32 @_Z13tMPI_Finalizev()
  br label %29

26:                                               ; preds = %22
  %27 = load ptr, ptr @TMPI_COMM_WORLD, align 8, !tbaa !51
  %28 = call noundef i32 @_Z12tMPI_BarrierP10tmpi_comm_(ptr noundef %27)
  br label %29

29:                                               ; preds = %22, %26, %22, %24
  br label %30

30:                                               ; preds = %29, %16
  %31 = load i32, ptr %3, align 4, !tbaa !49
  %32 = icmp eq i32 %31, 0
  br i1 %32, label %33, label %35

33:                                               ; preds = %30
  %34 = load i32, ptr %4, align 4, !tbaa !4
  call void @exit(i32 noundef %34) #17
  unreachable

35:                                               ; preds = %30
  %36 = load i32, ptr %4, align 4, !tbaa !4
  call void @_Exit(i32 noundef %36) #17
  unreachable
}