; Function Attrs: mustprogress noreturn uwtable
define void @_Z23gmx_exit_on_fatal_error8ExitTypei(i32 noundef %0, i32 noundef %1) local_unnamed_addr #9 {
  %3 = load ptr, ptr @_ZL8log_file, align 8, !tbaa !4
  %.not = icmp eq ptr %3, null
  br i1 %.not, label %6, label %4

4:                                                ; preds = %2
  %5 = tail call i32 @fflush(ptr noundef nonnull %3)
  br label %6

6:                                                ; preds = %4, %2
  %7 = load ptr, ptr @debug, align 8, !tbaa !4
  %.not5 = icmp eq ptr %7, null
  br i1 %.not5, label %10, label %8

8:                                                ; preds = %6
  %9 = tail call i32 @fflush(ptr noundef nonnull %7)
  br label %10

10:                                               ; preds = %8, %6
  %11 = load ptr, ptr @stdout, align 8, !tbaa !4
  %12 = tail call i32 @fflush(ptr noundef %11)
  %13 = load ptr, ptr @stderr, align 8, !tbaa !4
  %14 = tail call i32 @fflush(ptr noundef %13)
  %15 = tail call noundef zeroext i1 @_Z19gmx_mpi_initializedv()
  br i1 %15, label %16, label %20

16:                                               ; preds = %10
  switch i32 %0, label %23 [
    i32 0, label %.thread
    i32 2, label %.thread6
  ]

.thread:                                          ; preds = %16
  %17 = tail call noundef i32 @_Z13tMPI_Finalizev()
  br label %22

.thread6:                                         ; preds = %16
  %18 = load ptr, ptr @TMPI_COMM_WORLD, align 8, !tbaa !35
  %19 = tail call noundef i32 @_Z12tMPI_BarrierP10tmpi_comm_(ptr noundef %18)
  br label %23

20:                                               ; preds = %10
  %21 = icmp eq i32 %0, 0
  br i1 %21, label %22, label %23

22:                                               ; preds = %.thread, %20
  tail call void @exit(i32 noundef %1) #20
  unreachable

23:                                               ; preds = %.thread6, %16, %20
  tail call void @_Exit(i32 noundef %1) #20
  unreachable
}